; Function Attrs: mustprogress uwtable
define hidden void @_ZN6params7set_symERK6symbolS2_(ptr noundef nonnull align 8 dereferenceable(12) %this, ptr nocapture noundef nonnull readonly align 8 dereferenceable(8) %k, ptr nocapture noundef nonnull readonly align 8 dereferenceable(8) %v) local_unnamed_addr #3 align 2 personality ptr @__gxx_personality_v0 {
entry:
  %new_entry = alloca %"struct.std::pair", align 8
  %0 = load ptr, ptr %this, align 8
  %cmp.i.i = icmp eq ptr %0, null
  br i1 %cmp.i.i, label %_ZN6vectorISt4pairI6symbolN6params5valueEELb0EjE3endEv.exit.thread, label %_ZN6vectorISt4pairI6symbolN6params5valueEELb0EjE3endEv.exit

_ZN6vectorISt4pairI6symbolN6params5valueEELb0EjE3endEv.exit.thread: ; preds = %entry
  %ref.tmp.sroa.0.0.copyload.pre22 = load ptr, ptr %k, align 8
  br label %for.end

_ZN6vectorISt4pairI6symbolN6params5valueEELb0EjE3endEv.exit: ; preds = %entry
  %arrayidx.i.i = getelementptr inbounds i8, ptr %0, i64 -4
  %1 = load i32, ptr %arrayidx.i.i, align 4
  %2 = zext i32 %1 to i64
  %add.ptr.i = getelementptr inbounds %"struct.std::pair", ptr %0, i64 %2
  %cmp.not16 = icmp eq i32 %1, 0
  %ref.tmp.sroa.0.0.copyload.pre = load ptr, ptr %k, align 8
  br i1 %cmp.not16, label %for.end, label %for.body

for.body:                                         ; preds = %_ZN6vectorISt4pairI6symbolN6params5valueEELb0EjE3endEv.exit, %for.inc
  %it.017 = phi ptr [ %incdec.ptr, %for.inc ], [ %0, %_ZN6vectorISt4pairI6symbolN6params5valueEELb0EjE3endEv.exit ]
  %3 = load ptr, ptr %it.017, align 8
  %cmp.i = icmp eq ptr %3, %ref.tmp.sroa.0.0.copyload.pre
  br i1 %cmp.i, label %if.then, label %for.inc

if.then:                                          ; preds = %for.body
  %second.i = getelementptr inbounds i8, ptr %it.017, i64 8
  %4 = load i32, ptr %second.i, align 8
  %cond.i = icmp eq i32 %4, 3
  br i1 %cond.i, label %if.then.i, label %_ZN6params9del_valueERSt4pairI6symbolNS_5valueEE.exit

if.then.i:                                        ; preds = %if.then
  %5 = getelementptr inbounds i8, ptr %it.017, i64 16
  %6 = load ptr, ptr %5, align 8
  %cmp.i.i9 = icmp eq ptr %6, null
  br i1 %cmp.i.i9, label %_ZN6params9del_valueERSt4pairI6symbolNS_5valueEE.exit, label %if.end.i.i10

if.end.i.i10:                                     ; preds = %if.then.i
  %7 = load ptr, ptr @_ZN8rational13g_mpq_managerE, align 8
  invoke void @_ZN11mpz_managerILb1EE3delEPS0_R3mpz(ptr noundef %7, ptr noundef nonnull align 8 dereferenceable(16) %6)
          to label %.noexc.i.i.i unwind label %terminate.lpad.i.i.i

.noexc.i.i.i:                                     ; preds = %if.end.i.i10
  %m_den.i.i.i.i = getelementptr inbounds i8, ptr %6, i64 16
  invoke void @_ZN11mpz_managerILb1EE3delEPS0_R3mpz(ptr noundef %7, ptr noundef nonnull align 8 dereferenceable(16) %m_den.i.i.i.i)
          to label %_ZN8rationalD2Ev.exit.i.i unwind label %terminate.lpad.i.i.i

terminate.lpad.i.i.i:                             ; preds = %.noexc.i.i.i, %if.end.i.i10
  %8 = landingpad { ptr, i32 }
          catch ptr null
  %9 = extractvalue { ptr, i32 } %8, 0
  tail call void @__clang_call_terminate(ptr %9) #17
  unreachable

_ZN8rationalD2Ev.exit.i.i:                        ; preds = %.noexc.i.i.i
  tail call void @_ZN6memory10deallocateEPv(ptr noundef nonnull %6)
  br label %_ZN6params9del_valueERSt4pairI6symbolNS_5valueEE.exit

_ZN6params9del_valueERSt4pairI6symbolNS_5valueEE.exit: ; preds = %if.then, %if.then.i, %_ZN8rationalD2Ev.exit.i.i
  store i32 8, ptr %second.i, align 8
  %10 = load ptr, ptr %v, align 8
  %11 = getelementptr inbounds i8, ptr %it.017, i64 16
  %call7 = tail call noundef nonnull align 8 dereferenceable(8) ptr @_ZN6symbolaSEPKc(ptr noundef nonnull align 8 dereferenceable(8) %11, ptr noundef %10)
  br label %return

for.inc:                                          ; preds = %for.body
  %incdec.ptr = getelementptr inbounds i8, ptr %it.017, i64 24
  %cmp.not = icmp eq ptr %incdec.ptr, %add.ptr.i
  br i1 %cmp.not, label %for.end, label %for.body, !llvm.loop !17

for.end:                                          ; preds = %for.inc, %_ZN6vectorISt4pairI6symbolN6params5valueEELb0EjE3endEv.exit.thread, %_ZN6vectorISt4pairI6symbolN6params5valueEELb0EjE3endEv.exit
  %ref.tmp.sroa.0.0.copyload.pre23 = phi ptr [ %ref.tmp.sroa.0.0.copyload.pre22, %_ZN6vectorISt4pairI6symbolN6params5valueEELb0EjE3endEv.exit.thread ], [ %ref.tmp.sroa.0.0.copyload.pre, %_ZN6vectorISt4pairI6symbolN6params5valueEELb0EjE3endEv.exit ], [ %ref.tmp.sroa.0.0.copyload.pre, %for.inc ]
  %second.i11 = getelementptr inbounds i8, ptr %new_entry, i64 8
  %12 = getelementptr inbounds i8, ptr %new_entry, i64 16
  store i8 0, ptr %12, align 8
  store ptr %ref.tmp.sroa.0.0.copyload.pre23, ptr %new_entry, align 8
  store i32 8, ptr %second.i11, align 8
  %13 = load ptr, ptr %v, align 8
  %call13 = call noundef nonnull align 8 dereferenceable(8) ptr @_ZN6symbolaSEPKc(ptr noundef nonnull align 8 dereferenceable(8) %12, ptr noundef %13)
  %14 = load ptr, ptr %this, align 8
  %cmp.i12 = icmp eq ptr %14, null
  br i1 %cmp.i12, label %if.then.i14, label %lor.lhs.false.i

lor.lhs.false.i:                                  ; preds = %for.end
  %arrayidx.i = getelementptr inbounds i8, ptr %14, i64 -4
  %15 = load i32, ptr %arrayidx.i, align 4
  %arrayidx4.i = getelementptr inbounds i8, ptr %14, i64 -8
  %16 = load i32, ptr %arrayidx4.i, align 4
  %cmp5.i = icmp eq i32 %15, %16
  br i1 %cmp5.i, label %if.then.i14, label %_ZN6vectorISt4pairI6symbolN6params5valueEELb0EjE9push_backERKS4_.exit

if.then.i14:                                      ; preds = %lor.lhs.false.i, %for.end
  call void @_ZN6vectorISt4pairI6symbolN6params5valueEELb0EjE13expand_vectorEv(ptr noundef nonnull align 8 dereferenceable(8) %this)
  %.pre.i = load ptr, ptr %this, align 8
  %arrayidx8.phi.trans.insert.i = getelementptr inbounds i8, ptr %.pre.i, i64 -4
  %.pre1.i = load i32, ptr %arrayidx8.phi.trans.insert.i, align 4
  br label %_ZN6vectorISt4pairI6symbolN6params5valueEELb0EjE9push_backERKS4_.exit

_ZN6vectorISt4pairI6symbolN6params5valueEELb0EjE9push_backERKS4_.exit: ; preds = %lor.lhs.false.i, %if.then.i14
  %17 = phi i32 [ %.pre1.i, %if.then.i14 ], [ %15, %lor.lhs.false.i ]
  %18 = phi ptr [ %.pre.i, %if.then.i14 ], [ %14, %lor.lhs.false.i ]
  %idx.ext.i = zext i32 %17 to i64
  %add.ptr.i13 = getelementptr inbounds %"struct.std::pair", ptr %18, i64 %idx.ext.i
  call void @llvm.memcpy.p0.p0.i64(ptr noundef nonnull align 8 dereferenceable(24) %add.ptr.i13, ptr noundef nonnull align 8 dereferenceable(24) %new_entry, i64 24, i1 false)
  %19 = load ptr, ptr %this, align 8
  %arrayidx10.i = getelementptr inbounds i8, ptr %19, i64 -4
  %20 = load i32, ptr %arrayidx10.i, align 4
  %inc.i = add i32 %20, 1
  store i32 %inc.i, ptr %arrayidx10.i, align 4
  br label %return

return:                                           ; preds = %_ZN6vectorISt4pairI6symbolN6params5valueEELb0EjE9push_backERKS4_.exit, %_ZN6params9del_valueERSt4pairI6symbolNS_5valueEE.exit
  ret void
}